; Function Attrs: mustprogress uwtable
define hidden void @_ZN3mus14add_assumptionEP4expr(ptr noundef nonnull readonly align 8 captures(none) dereferenceable(8) %0, ptr noundef %1) local_unnamed_addr #3 align 2 {
  %3 = load ptr, ptr %0, align 8, !tbaa !36
  %.not.i.i.i.i.i = icmp eq ptr %1, null
  br i1 %.not.i.i.i.i.i, label %_ZN15ref_vector_coreI4expr19ref_manager_wrapperIS0_11ast_managerEE7inc_refEPS0_.exit.i.i, label %4

4:                                                ; preds = %2
  %5 = getelementptr inbounds nuw i8, ptr %1, i64 8
  %6 = load i32, ptr %5, align 4, !tbaa !40
  %7 = add i32 %6, 1
  store i32 %7, ptr %5, align 4, !tbaa !40
  br label %_ZN15ref_vector_coreI4expr19ref_manager_wrapperIS0_11ast_managerEE7inc_refEPS0_.exit.i.i

_ZN15ref_vector_coreI4expr19ref_manager_wrapperIS0_11ast_managerEE7inc_refEPS0_.exit.i.i: ; preds = %4, %2
  %8 = getelementptr inbounds nuw i8, ptr %3, i64 40
  %9 = load ptr, ptr %8, align 8, !tbaa !12
  %10 = icmp eq ptr %9, null
  br i1 %10, label %17, label %11

11:                                               ; preds = %_ZN15ref_vector_coreI4expr19ref_manager_wrapperIS0_11ast_managerEE7inc_refEPS0_.exit.i.i
  %12 = getelementptr inbounds i8, ptr %9, i64 -4
  %13 = load i32, ptr %12, align 4, !tbaa !39
  %14 = getelementptr inbounds i8, ptr %9, i64 -8
  %15 = load i32, ptr %14, align 4, !tbaa !39
  %16 = icmp eq i32 %13, %15
  br i1 %16, label %17, label %_ZN3mus3imp14add_assumptionEP4expr.exit

17:                                               ; preds = %11, %_ZN15ref_vector_coreI4expr19ref_manager_wrapperIS0_11ast_managerEE7inc_refEPS0_.exit.i.i
  tail call void @_ZN6vectorIP4exprLb0EjE13expand_vectorEv(ptr noundef nonnull align 8 dereferenceable(8) %8)
  %.pre.i.i.i = load ptr, ptr %8, align 8, !tbaa !12
  %.phi.trans.insert.i.i.i = getelementptr inbounds i8, ptr %.pre.i.i.i, i64 -4
  %.pre2.i.i.i = load i32, ptr %.phi.trans.insert.i.i.i, align 4, !tbaa !39
  br label %_ZN3mus3imp14add_assumptionEP4expr.exit

_ZN3mus3imp14add_assumptionEP4expr.exit:          ; preds = %11, %17
  %18 = phi i32 [ %.pre2.i.i.i, %17 ], [ %13, %11 ]
  %19 = phi ptr [ %.pre.i.i.i, %17 ], [ %9, %11 ]
  %20 = getelementptr inbounds i8, ptr %19, i64 -4
  %21 = zext i32 %18 to i64
  %22 = getelementptr inbounds nuw ptr, ptr %19, i64 %21
  store ptr %1, ptr %22, align 8, !tbaa !42
  %23 = add i32 %18, 1
  store i32 %23, ptr %20, align 4, !tbaa !39
  ret void
}